; Function Attrs: mustprogress nounwind uwtable
define noundef nonnull align 8 dereferenceable(216) ptr @_ZN5boost4urls8url_base18normalize_fragmentEv(ptr noundef nonnull returned align 8 dereferenceable(216) %0) local_unnamed_addr #6 align 2 {
  %2 = alloca %"struct.boost::urls::url_base::op_t", align 8
  call void @llvm.lifetime.start.p0(i64 32, ptr nonnull %2) #30
  call void @_ZN5boost4urls8url_base4op_tC1ERS1_PNS_4core17basic_string_viewIcEES7_(ptr noundef nonnull align 8 dereferenceable(32) %2, ptr noundef nonnull align 8 dereferenceable(216) %0, ptr noundef null, ptr noundef null) #30
  call void @_ZN5boost4urls8url_base21normalize_octets_implINS0_7grammar9lut_charsEEEviRKT_RNS1_4op_tE(ptr noundef nonnull align 8 dereferenceable(216) %0, i32 noundef 6, ptr noundef nonnull align 8 dereferenceable(32) @_ZN5boost4urls6detailL14fragment_charsE, ptr noundef nonnull align 8 dereferenceable(32) %2) #30
  call void @_ZN5boost4urls8url_base4op_tD1Ev(ptr noundef nonnull align 8 dereferenceable(32) %2) #30
  call void @llvm.lifetime.end.p0(i64 32, ptr nonnull %2) #30
  ret ptr %0
}